; Function Attrs: nounwind uwtable
define dso_local void @_PyParkingLot_UnparkAll(ptr noundef %0) local_unnamed_addr #0 {
  %2 = alloca %struct.llist_node, align 8
  call void @llvm.lifetime.start.p0(i64 16, ptr nonnull %2) #9
  store ptr %2, ptr %2, align 8, !tbaa !24
  %3 = getelementptr inbounds nuw i8, ptr %2, i64 8
  store ptr %2, ptr %3, align 8, !tbaa !23
  %4 = ptrtoint ptr %0 to i64
  %5 = urem i64 %4, 257
  %6 = getelementptr [257 x %struct.Bucket], ptr @buckets, i64 0, i64 %5
  %7 = cmpxchg ptr %6, i64 0, i64 1 seq_cst seq_cst, align 8
  %8 = extractvalue { i64, i1 } %7, 1
  br i1 %8, label %_PyRawMutex_Lock.exit, label %9

9:                                                ; preds = %1
  call void @_PyRawMutex_LockSlow(ptr noundef %6) #9
  br label %_PyRawMutex_Lock.exit

_PyRawMutex_Lock.exit:                            ; preds = %1, %9
  %10 = getelementptr inbounds nuw i8, ptr %6, i64 8
  %11 = load ptr, ptr %10, align 8, !tbaa !24
  %.not17.i = icmp eq ptr %11, %10
  br i1 %.not17.i, label %dequeue_all.exit, label %.lr.ph.i

.lr.ph.i:                                         ; preds = %_PyRawMutex_Lock.exit
  %12 = getelementptr inbounds nuw i8, ptr %6, i64 24
  br label %13

13:                                               ; preds = %25, %.lr.ph.i
  %.018.i = phi ptr [ %11, %.lr.ph.i ], [ %.01519.i, %25 ]
  %.01519.i = load ptr, ptr %.018.i, align 8, !tbaa !24
  %14 = getelementptr i8, ptr %.018.i, i64 -40
  %15 = load i64, ptr %14, align 8, !tbaa !19
  %16 = icmp eq i64 %15, %4
  br i1 %16, label %17, label %25

17:                                               ; preds = %13
  %18 = getelementptr inbounds nuw i8, ptr %.018.i, i64 8
  %19 = load ptr, ptr %18, align 8, !tbaa !23
  store ptr %.01519.i, ptr %19, align 8, !tbaa !24
  %20 = getelementptr inbounds nuw i8, ptr %.01519.i, i64 8
  store ptr %19, ptr %20, align 8, !tbaa !23
  call void @llvm.memset.p0.i64(ptr noundef nonnull align 8 dereferenceable(16) %.018.i, i8 0, i64 16, i1 false)
  %21 = load ptr, ptr %3, align 8, !tbaa !23
  store ptr %21, ptr %18, align 8, !tbaa !23
  store ptr %2, ptr %.018.i, align 8, !tbaa !24
  store ptr %.018.i, ptr %21, align 8, !tbaa !24
  store ptr %.018.i, ptr %3, align 8, !tbaa !23
  %22 = load i64, ptr %12, align 8, !tbaa !25
  %23 = add i64 %22, -1
  store i64 %23, ptr %12, align 8, !tbaa !25
  %24 = getelementptr i8, ptr %.018.i, i64 16
  store i8 1, ptr %24, align 8, !tbaa !28
  br label %25

25:                                               ; preds = %17, %13
  %.not.i = icmp eq ptr %.01519.i, %10
  br i1 %.not.i, label %dequeue_all.exit, label %13, !llvm.loop !33

dequeue_all.exit:                                 ; preds = %25, %_PyRawMutex_Lock.exit
  %26 = cmpxchg ptr %6, i64 1, i64 0 seq_cst seq_cst, align 8
  %27 = extractvalue { i64, i1 } %26, 1
  br i1 %27, label %_PyRawMutex_Unlock.exit, label %28

28:                                               ; preds = %dequeue_all.exit
  call void @_PyRawMutex_UnlockSlow(ptr noundef %6) #9
  br label %_PyRawMutex_Unlock.exit

_PyRawMutex_Unlock.exit:                          ; preds = %dequeue_all.exit, %28
  %29 = load ptr, ptr %2, align 8, !tbaa !24
  br label %_PySemaphore_Wakeup.exit

_PySemaphore_Wakeup.exit:                         ; preds = %31, %_PyRawMutex_Unlock.exit
  %.0 = phi ptr [ %29, %_PyRawMutex_Unlock.exit ], [ %.012, %31 ]
  %.not = icmp eq ptr %.0, %2
  br i1 %.not, label %30, label %31

30:                                               ; preds = %_PySemaphore_Wakeup.exit
  call void @llvm.lifetime.end.p0(i64 16, ptr nonnull %2) #9
  ret void

31:                                               ; preds = %_PySemaphore_Wakeup.exit
  %.012 = load ptr, ptr %.0, align 8, !tbaa !24
  %32 = getelementptr inbounds nuw i8, ptr %.0, i64 8
  %33 = load ptr, ptr %32, align 8, !tbaa !23
  store ptr %.012, ptr %33, align 8, !tbaa !24
  %34 = getelementptr inbounds nuw i8, ptr %.012, i64 8
  store ptr %33, ptr %34, align 8, !tbaa !23
  call void @llvm.memset.p0.i64(ptr noundef nonnull align 8 dereferenceable(16) %.0, i8 0, i64 16, i1 false)
  %35 = getelementptr i8, ptr %.0, i64 -32
  %36 = call i32 @sem_post(ptr noundef %35) #9
  %.not.i14 = icmp eq i32 %36, 0
  br i1 %.not.i14, label %_PySemaphore_Wakeup.exit, label %37, !llvm.loop !34

37:                                               ; preds = %31
  call void @_Py_FatalErrorFunc(ptr noundef nonnull @__func__._PySemaphore_Wakeup, ptr noundef nonnull @.str.1) #10
  unreachable
}